(lp0
I8
aI8
ac__builtin__
set
p1
((lp2
(I7
I3
tp3
a(I4
I7
tp4
a(I1
I3
tp5
a(I6
I6
tp6
a(I3
I0
tp7
a(I7
I7
tp8
a(I0
I7
tp9
a(I0
I0
tp10
a(I1
I6
tp11
a(I5
I1
tp12
a(I3
I7
tp13
a(I2
I5
tp14
a(I0
I3
tp15
a(I7
I2
tp16
a(I4
I0
tp17
a(I1
I2
tp18
a(I3
I1
tp19
a(I6
I7
tp20
a(I3
I3
tp21
a(I1
I5
tp22
a(I7
I6
tp23
a(I4
I4
tp24
a(I6
I3
tp25
a(I5
I6
tp26
a(I3
I6
tp27
a(I2
I2
tp28
a(I0
I1
tp29
a(I3
I5
tp30
a(I4
I1
tp31
a(I1
I1
tp32
a(I6
I4
tp33
a(I5
I4
tp34
a(I2
I6
tp35
a(I3
I2
tp36
a(I5
I0
tp37
a(I7
I1
tp38
a(I4
I5
tp39
a(I0
I4
tp40
a(I5
I5
tp41
a(I1
I4
tp42
a(I6
I0
tp43
a(I7
I5
tp44
a(I2
I3
tp45
a(I2
I1
tp46
a(I2
I4
tp47
a(I4
I2
tp48
a(I1
I0
tp49
a(I6
I5
tp50
a(I5
I3
tp51
a(I2
I7
tp52
a(I7
I0
tp53
a(I4
I6
tp54
a(I3
I4
tp55
a(I6
I1
tp56
a(I5
I7
tp57
a(I0
I6
tp58
a(I7
I4
tp59
a(I2
I0
tp60
a(I6
I2
tp61
a(I4
I3
tp62
a(I1
I7
tp63
a(I0
I5
tp64
a(I5
I2
tp65
a(I0
I2
tp66
atp67
Rp68
ag1
((lp69
(I5
I6
tp70
a(I3
I0
tp71
a(I0
I4
tp72
a(I2
I0
tp73
a(I1
I7
tp74
a(I4
I0
tp75
atp76
Rp77
ag1
((lp78
(I7
I3
tp79
a(I4
I7
tp80
a(I1
I3
tp81
a(I6
I6
tp82
a(I3
I2
tp83
a(I2
I1
tp84
a(I6
I2
tp85
a(I1
I6
tp86
a(I3
I7
tp87
a(I5
I1
tp88
a(I0
I3
tp89
a(I2
I5
tp90
a(I7
I2
tp91
a(I1
I2
tp92
a(I6
I7
tp93
a(I5
I5
tp94
a(I7
I6
tp95
a(I4
I4
tp96
a(I6
I3
tp97
a(I1
I5
tp98
a(I5
I0
tp99
a(I2
I2
tp100
a(I5
I3
tp101
a(I4
I1
tp102
a(I1
I1
tp103
a(I6
I4
tp104
a(I5
I4
tp105
a(I0
I0
tp106
a(I3
I6
tp107
a(I2
I7
tp108
a(I7
I1
tp109
a(I4
I5
tp110
a(I6
I0
tp111
a(I1
I4
tp112
a(I7
I7
tp113
a(I3
I5
tp114
a(I2
I3
tp115
a(I4
I2
tp116
a(I1
I0
tp117
a(I6
I5
tp118
a(I3
I3
tp119
a(I0
I1
tp120
a(I7
I0
tp121
a(I4
I6
tp122
a(I5
I2
tp123
a(I6
I1
tp124
a(I3
I1
tp125
a(I2
I6
tp126
a(I2
I4
tp127
a(I7
I4
tp128
a(I7
I5
tp129
a(I4
I3
tp130
a(I3
I4
tp131
a(I0
I2
tp132
atp133
Rp134
a.