(lp0
I20
aI16
ac__builtin__
set
p1
((lp2
(I7
I3
tp3
a(I6
I9
tp4
a(I17
I11
tp5
a(I12
I1
tp6
a(I11
I11
tp7
a(I16
I6
tp8
a(I7
I12
tp9
a(I14
I4
tp10
a(I13
I4
tp11
a(I12
I12
tp12
a(I19
I4
tp13
a(I18
I4
tp14
a(I0
I7
tp15
a(I15
I1
tp16
a(I19
I15
tp17
a(I1
I6
tp18
a(I0
I10
tp19
a(I17
I13
tp20
a(I3
I7
tp21
a(I2
I5
tp22
a(I1
I11
tp23
a(I8
I5
tp24
a(I5
I8
tp25
a(I4
I0
tp26
a(I10
I8
tp27
a(I9
I0
tp28
a(I16
I3
tp29
a(I6
I7
tp30
a(I5
I5
tp31
a(I11
I5
tp32
a(I10
I7
tp33
a(I7
I6
tp34
a(I6
I10
tp35
a(I16
I8
tp36
a(I12
I6
tp37
a(I19
I14
tp38
a(I17
I2
tp39
a(I15
I11
tp40
a(I14
I1
tp41
a(I13
I7
tp42
a(I19
I3
tp43
a(I18
I9
tp44
a(I0
I4
tp45
a(I15
I4
tp46
a(I1
I1
tp47
a(I8
I15
tp48
a(I4
I10
tp49
a(I3
I2
tp50
a(I2
I6
tp51
a(I9
I14
tp52
a(I8
I2
tp53
a(I5
I11
tp54
a(I4
I5
tp55
a(I10
I13
tp56
a(I9
I3
tp57
a(I6
I0
tp58
a(I17
I5
tp59
a(I11
I0
tp60
a(I7
I5
tp61
a(I14
I15
tp62
a(I12
I11
tp63
a(I19
I13
tp64
a(I16
I5
tp65
a(I15
I14
tp66
a(I14
I2
tp67
a(I13
I10
tp68
a(I18
I10
tp69
a(I0
I1
tp70
a(I3
I12
tp71
a(I1
I12
tp72
a(I8
I12
tp73
a(I4
I15
tp74
a(I3
I1
tp75
a(I2
I11
tp76
a(I9
I9
tp77
a(I5
I14
tp78
a(I10
I14
tp79
a(I6
I13
tp80
a(I11
I15
tp81
a(I7
I8
tp82
a(I14
I8
tp83
a(I13
I0
tp84
a(I12
I8
tp85
a(I19
I8
tp86
a(I18
I0
tp87
a(I16
I0
tp88
a(I15
I13
tp89
a(I13
I13
tp90
a(I18
I15
tp91
a(I0
I14
tp92
a(I3
I11
tp93
a(I2
I1
tp94
a(I1
I15
tp95
a(I8
I9
tp96
a(I4
I12
tp97
a(I2
I12
tp98
a(I9
I4
tp99
a(I16
I14
tp100
a(I5
I1
tp101
a(I10
I3
tp102
a(I7
I2
tp103
a(I6
I14
tp104
a(I12
I2
tp105
a(I11
I10
tp106
a(I17
I6
tp107
a(I7
I15
tp108
a(I14
I5
tp109
a(I13
I3
tp110
a(I12
I13
tp111
a(I19
I7
tp112
a(I18
I5
tp113
a(I16
I4
tp114
a(I15
I0
tp115
a(I1
I5
tp116
a(I0
I11
tp117
a(I3
I6
tp118
a(I2
I2
tp119
a(I1
I10
tp120
a(I8
I6
tp121
a(I4
I1
tp122
a(I10
I9
tp123
a(I9
I7
tp124
a(I6
I4
tp125
a(I5
I4
tp126
a(I11
I4
tp127
a(I10
I4
tp128
a(I7
I1
tp129
a(I6
I11
tp130
a(I12
I7
tp131
a(I11
I9
tp132
a(I17
I1
tp133
a(I15
I10
tp134
a(I14
I6
tp135
a(I13
I6
tp136
a(I19
I2
tp137
a(I18
I6
tp138
a(I0
I5
tp139
a(I15
I7
tp140
a(I1
I0
tp141
a(I0
I8
tp142
a(I4
I11
tp143
a(I3
I5
tp144
a(I2
I7
tp145
a(I9
I13
tp146
a(I8
I3
tp147
a(I5
I10
tp148
a(I4
I6
tp149
a(I10
I10
tp150
a(I9
I2
tp151
a(I16
I13
tp152
a(I6
I1
tp153
a(I5
I7
tp154
a(I11
I3
tp155
a(I7
I4
tp156
a(I14
I12
tp157
a(I12
I4
tp158
a(I19
I12
tp159
a(I17
I12
tp160
a(I15
I9
tp161
a(I14
I3
tp162
a(I13
I9
tp163
a(I19
I1
tp164
a(I18
I11
tp165
a(I0
I2
tp166
a(I3
I15
tp167
a(I1
I3
tp168
a(I8
I13
tp169
a(I4
I8
tp170
a(I3
I0
tp171
a(I2
I8
tp172
a(I9
I8
tp173
a(I8
I0
tp174
a(I5
I13
tp175
a(I10
I15
tp176
a(I6
I2
tp177
a(I11
I14
tp178
a(I7
I11
tp179
a(I14
I9
tp180
a(I12
I9
tp181
a(I19
I11
tp182
a(I18
I1
tp183
a(I17
I15
tp184
a(I15
I12
tp185
a(I13
I12
tp186
a(I18
I12
tp187
a(I0
I15
tp188
a(I3
I10
tp189
a(I1
I14
tp190
a(I8
I10
tp191
a(I4
I13
tp192
a(I2
I13
tp193
a(I9
I11
tp194
a(I5
I0
tp195
a(I17
I7
tp196
a(I10
I0
tp197
a(I16
I12
tp198
a(I6
I15
tp199
a(I16
I9
tp200
a(I12
I3
tp201
a(I11
I13
tp202
a(I16
I10
tp203
a(I7
I14
tp204
a(I14
I10
tp205
a(I13
I2
tp206
a(I12
I14
tp207
a(I19
I6
tp208
a(I18
I2
tp209
a(I17
I10
tp210
a(I15
I3
tp211
a(I13
I15
tp212
a(I17
I8
tp213
a(I1
I4
tp214
a(I0
I12
tp215
a(I3
I9
tp216
a(I2
I3
tp217
a(I1
I9
tp218
a(I8
I7
tp219
a(I4
I2
tp220
a(I2
I14
tp221
a(I9
I6
tp222
a(I6
I5
tp223
a(I5
I3
tp224
a(I11
I7
tp225
a(I10
I5
tp226
a(I7
I0
tp227
a(I6
I8
tp228
a(I12
I0
tp229
a(I11
I8
tp230
a(I17
I0
tp231
a(I7
I13
tp232
a(I14
I7
tp233
a(I13
I5
tp234
a(I19
I5
tp235
a(I18
I7
tp236
a(I0
I6
tp237
a(I15
I6
tp238
a(I1
I7
tp239
a(I0
I9
tp240
a(I16
I1
tp241
a(I3
I4
tp242
a(I2
I4
tp243
a(I9
I12
tp244
a(I8
I4
tp245
a(I5
I9
tp246
a(I4
I7
tp247
a(I10
I11
tp248
a(I9
I1
tp249
a(I6
I6
tp250
a(I5
I6
tp251
a(I11
I2
tp252
a(I10
I6
tp253
a(I7
I7
tp254
a(I14
I13
tp255
a(I12
I5
tp256
a(I19
I0
tp257
a(I17
I3
tp258
a(I15
I8
tp259
a(I14
I0
tp260
a(I13
I8
tp261
a(I16
I2
tp262
a(I18
I8
tp263
a(I0
I3
tp264
a(I15
I5
tp265
a(I3
I14
tp266
a(I1
I2
tp267
a(I8
I14
tp268
a(I4
I9
tp269
a(I3
I3
tp270
a(I2
I9
tp271
a(I9
I15
tp272
a(I8
I1
tp273
a(I5
I12
tp274
a(I4
I4
tp275
a(I10
I12
tp276
a(I6
I3
tp277
a(I11
I1
tp278
a(I16
I7
tp279
a(I7
I10
tp280
a(I14
I14
tp281
a(I12
I10
tp282
a(I19
I10
tp283
a(I17
I14
tp284
a(I15
I15
tp285
a(I13
I11
tp286
a(I18
I13
tp287
a(I0
I0
tp288
a(I3
I13
tp289
a(I1
I13
tp290
a(I8
I11
tp291
a(I16
I11
tp292
a(I4
I14
tp293
a(I2
I10
tp294
a(I9
I10
tp295
a(I5
I15
tp296
a(I10
I1
tp297
a(I6
I12
tp298
a(I11
I12
tp299
a(I17
I4
tp300
a(I7
I9
tp301
a(I14
I11
tp302
a(I13
I1
tp303
a(I12
I15
tp304
a(I19
I9
tp305
a(I18
I3
tp306
a(I17
I9
tp307
a(I15
I2
tp308
a(I13
I14
tp309
a(I18
I14
tp310
a(I0
I13
tp311
a(I3
I8
tp312
a(I2
I0
tp313
a(I1
I8
tp314
a(I8
I8
tp315
a(I4
I3
tp316
a(I16
I15
tp317
a(I2
I15
tp318
a(I9
I5
tp319
a(I5
I2
tp320
a(I11
I6
tp321
a(I10
I2
tp322
atp323
Rp324
ag1
((lp325
(I5
I9
tp326
a(I6
I9
tp327
a(I7
I13
tp328
a(I8
I13
tp329
a(I13
I13
tp330
a(I17
I7
tp331
a(I3
I0
tp332
a(I14
I4
tp333
a(I9
I8
tp334
a(I12
I12
tp335
a(I19
I4
tp336
a(I3
I2
tp337
a(I14
I13
tp338
a(I15
I1
tp339
a(I19
I15
tp340
a(I15
I8
tp341
a(I2
I12
tp342
a(I7
I11
tp343
a(I15
I5
tp344
a(I10
I3
tp345
a(I18
I1
tp346
a(I17
I15
tp347
a(I1
I2
tp348
a(I3
I8
tp349
a(I9
I0
tp350
a(I9
I5
tp351
a(I2
I9
tp352
a(I12
I13
tp353
a(I3
I10
tp354
a(I4
I8
tp355
a(I8
I10
tp356
a(I15
I12
tp357
a(I4
I13
tp358
a(I1
I5
tp359
a(I0
I11
tp360
a(I11
I1
tp361
a(I7
I2
tp362
a(I3
I6
tp363
a(I0
I4
tp364
a(I7
I7
tp365
a(I6
I14
tp366
a(I10
I12
tp367
a(I11
I2
tp368
a(I9
I7
tp369
a(I17
I5
tp370
a(I5
I4
tp371
a(I14
I2
tp372
a(I10
I4
tp373
a(I3
I14
tp374
a(I18
I2
tp375
a(I1
I13
tp376
a(I12
I7
tp377
a(I11
I9
tp378
a(I16
I11
tp379
a(I4
I14
tp380
a(I15
I10
tp381
a(I2
I10
tp382
a(I13
I6
tp383
a(I1
I4
tp384
a(I19
I13
tp385
a(I16
I5
tp386
a(I2
I14
tp387
a(I13
I10
tp388
a(I6
I5
tp389
a(I17
I9
tp390
a(I13
I1
tp391
a(I10
I5
tp392
a(I7
I0
tp393
a(I4
I6
tp394
a(I12
I0
tp395
a(I18
I14
tp396
a(I11
I11
tp397
a(I5
I14
tp398
a(I10
I14
tp399
a(I17
I12
tp400
a(I6
I13
tp401
a(I1
I6
tp402
a(I0
I7
tp403
a(I13
I9
tp404
a(I13
I15
tp405
atp406
Rp407
a.