(lp0
I8
aI8
ac__builtin__
set
p1
((lp2
(I7
I3
tp3
a(I4
I7
tp4
a(I1
I3
tp5
a(I6
I4
tp6
a(I3
I0
tp7
a(I5
I4
tp8
a(I0
I7
tp9
a(I5
I6
tp10
a(I2
I6
tp11
a(I1
I6
tp12
a(I5
I1
tp13
a(I3
I7
tp14
a(I2
I5
tp15
a(I0
I3
tp16
a(I7
I2
tp17
a(I4
I0
tp18
a(I1
I2
tp19
a(I6
I7
tp20
a(I3
I3
tp21
a(I2
I0
tp22
a(I7
I6
tp23
a(I4
I4
tp24
a(I6
I3
tp25
a(I1
I5
tp26
a(I3
I6
tp27
a(I2
I2
tp28
a(I7
I7
tp29
a(I5
I7
tp30
a(I5
I3
tp31
a(I4
I1
tp32
a(I1
I1
tp33
a(I2
I7
tp34
a(I3
I2
tp35
a(I0
I0
tp36
a(I6
I6
tp37
a(I5
I0
tp38
a(I7
I1
tp39
a(I4
I5
tp40
a(I0
I4
tp41
a(I5
I5
tp42
a(I1
I4
tp43
a(I6
I0
tp44
a(I7
I5
tp45
a(I2
I3
tp46
a(I2
I1
tp47
a(I4
I2
tp48
a(I1
I0
tp49
a(I6
I5
tp50
a(I3
I5
tp51
a(I0
I1
tp52
a(I7
I0
tp53
a(I4
I6
tp54
a(I5
I2
tp55
a(I6
I1
tp56
a(I3
I1
tp57
a(I0
I2
tp58
a(I7
I4
tp59
a(I0
I6
tp60
a(I6
I2
tp61
a(I4
I3
tp62
a(I1
I7
tp63
a(I0
I5
tp64
a(I3
I4
tp65
a(I2
I4
tp66
atp67
Rp68
ag1
((lp69
(I2
I7
tp70
a(I7
I3
tp71
a(I2
I6
tp72
a(I0
I0
tp73
a(I1
I3
tp74
a(I4
I0
tp75
atp76
Rp77
a.